target datalayout = "e-m:e-p270:32:32-p271:32:32-p272:64:64-i64:64-i128:128-f80:128-n8:16:32:64-S128"
target triple = "x86_64-pc-linux-gnu"

%struct.b2Vec2 = type { float, float }
%struct.b2Transform = type { %struct.b2Vec2, %struct.b2Rot }
%struct.b2Rot = type { float, float }
%struct.b2Filter = type { i64, i64, i32 }
%struct.b2Shape = type { i32, i32, i32, i32, i32, i32, float, float, float, float, float, i32, %struct.b2AABB, %struct.b2AABB, %struct.b2Vec2, i32, %struct.b2Filter, ptr, i32, %union.anon.0, i16, i8, i8, i8, i8 }
%struct.b2AABB = type { %struct.b2Vec2, %struct.b2Vec2 }
%union.anon.0 = type { %struct.b2Polygon }
%struct.b2Polygon = type { [8 x %struct.b2Vec2], [8 x %struct.b2Vec2], %struct.b2Vec2, float, i32 }
%struct.b2Segment = type { %struct.b2Vec2, %struct.b2Vec2 }
%struct.b2ChainSegment = type { %struct.b2Vec2, %struct.b2Segment, %struct.b2Vec2, i32 }

@b2_lengthUnitsPerMeter = external global float, align 4

; Function Attrs: nounwind uwtable
define hidden { <2 x float>, <2 x float> } @b2ComputeShapeAABB(ptr noundef %0, <2 x float> %1, <2 x float> %2) #3 {
  %4 = alloca %struct.b2AABB, align 4
  %5 = alloca %struct.b2Transform, align 4
  %6 = alloca ptr, align 8
  %7 = getelementptr inbounds nuw { <2 x float>, <2 x float> }, ptr %5, i32 0, i32 0
  store <2 x float> %1, ptr %7, align 4
  %8 = getelementptr inbounds nuw { <2 x float>, <2 x float> }, ptr %5, i32 0, i32 1
  store <2 x float> %2, ptr %8, align 4
  store ptr %0, ptr %6, align 8, !tbaa !34
  %9 = load ptr, ptr %6, align 8, !tbaa !34
  %10 = getelementptr inbounds nuw %struct.b2Shape, ptr %9, i32 0, i32 5
  %11 = load i32, ptr %10, align 4, !tbaa !201
  switch i32 %11, label %73 [
    i32 1, label %12
    i32 0, label %24
    i32 3, label %36
    i32 2, label %48
    i32 4, label %60
  ]

12:                                               ; preds = %3
  %13 = load ptr, ptr %6, align 8, !tbaa !34
  %14 = getelementptr inbounds nuw %struct.b2Shape, ptr %13, i32 0, i32 19
  %15 = getelementptr inbounds nuw { <2 x float>, <2 x float> }, ptr %5, i32 0, i32 0
  %16 = load <2 x float>, ptr %15, align 4
  %17 = getelementptr inbounds nuw { <2 x float>, <2 x float> }, ptr %5, i32 0, i32 1
  %18 = load <2 x float>, ptr %17, align 4
  %19 = call { <2 x float>, <2 x float> } @b2ComputeCapsuleAABB(ptr noundef %14, <2 x float> %16, <2 x float> %18)
  %20 = getelementptr inbounds nuw { <2 x float>, <2 x float> }, ptr %4, i32 0, i32 0
  %21 = extractvalue { <2 x float>, <2 x float> } %19, 0
  store <2 x float> %21, ptr %20, align 4
  %22 = getelementptr inbounds nuw { <2 x float>, <2 x float> }, ptr %4, i32 0, i32 1
  %23 = extractvalue { <2 x float>, <2 x float> } %19, 1
  store <2 x float> %23, ptr %22, align 4
  br label %78

24:                                               ; preds = %3
  %25 = load ptr, ptr %6, align 8, !tbaa !34
  %26 = getelementptr inbounds nuw %struct.b2Shape, ptr %25, i32 0, i32 19
  %27 = getelementptr inbounds nuw { <2 x float>, <2 x float> }, ptr %5, i32 0, i32 0
  %28 = load <2 x float>, ptr %27, align 4
  %29 = getelementptr inbounds nuw { <2 x float>, <2 x float> }, ptr %5, i32 0, i32 1
  %30 = load <2 x float>, ptr %29, align 4
  %31 = call { <2 x float>, <2 x float> } @b2ComputeCircleAABB(ptr noundef %26, <2 x float> %28, <2 x float> %30)
  %32 = getelementptr inbounds nuw { <2 x float>, <2 x float> }, ptr %4, i32 0, i32 0
  %33 = extractvalue { <2 x float>, <2 x float> } %31, 0
  store <2 x float> %33, ptr %32, align 4
  %34 = getelementptr inbounds nuw { <2 x float>, <2 x float> }, ptr %4, i32 0, i32 1
  %35 = extractvalue { <2 x float>, <2 x float> } %31, 1
  store <2 x float> %35, ptr %34, align 4
  br label %78

36:                                               ; preds = %3
  %37 = load ptr, ptr %6, align 8, !tbaa !34
  %38 = getelementptr inbounds nuw %struct.b2Shape, ptr %37, i32 0, i32 19
  %39 = getelementptr inbounds nuw { <2 x float>, <2 x float> }, ptr %5, i32 0, i32 0
  %40 = load <2 x float>, ptr %39, align 4
  %41 = getelementptr inbounds nuw { <2 x float>, <2 x float> }, ptr %5, i32 0, i32 1
  %42 = load <2 x float>, ptr %41, align 4
  %43 = call { <2 x float>, <2 x float> } @b2ComputePolygonAABB(ptr noundef %38, <2 x float> %40, <2 x float> %42)
  %44 = getelementptr inbounds nuw { <2 x float>, <2 x float> }, ptr %4, i32 0, i32 0
  %45 = extractvalue { <2 x float>, <2 x float> } %43, 0
  store <2 x float> %45, ptr %44, align 4
  %46 = getelementptr inbounds nuw { <2 x float>, <2 x float> }, ptr %4, i32 0, i32 1
  %47 = extractvalue { <2 x float>, <2 x float> } %43, 1
  store <2 x float> %47, ptr %46, align 4
  br label %78

48:                                               ; preds = %3
  %49 = load ptr, ptr %6, align 8, !tbaa !34
  %50 = getelementptr inbounds nuw %struct.b2Shape, ptr %49, i32 0, i32 19
  %51 = getelementptr inbounds nuw { <2 x float>, <2 x float> }, ptr %5, i32 0, i32 0
  %52 = load <2 x float>, ptr %51, align 4
  %53 = getelementptr inbounds nuw { <2 x float>, <2 x float> }, ptr %5, i32 0, i32 1
  %54 = load <2 x float>, ptr %53, align 4
  %55 = call { <2 x float>, <2 x float> } @b2ComputeSegmentAABB(ptr noundef %50, <2 x float> %52, <2 x float> %54)
  %56 = getelementptr inbounds nuw { <2 x float>, <2 x float> }, ptr %4, i32 0, i32 0
  %57 = extractvalue { <2 x float>, <2 x float> } %55, 0
  store <2 x float> %57, ptr %56, align 4
  %58 = getelementptr inbounds nuw { <2 x float>, <2 x float> }, ptr %4, i32 0, i32 1
  %59 = extractvalue { <2 x float>, <2 x float> } %55, 1
  store <2 x float> %59, ptr %58, align 4
  br label %78

60:                                               ; preds = %3
  %61 = load ptr, ptr %6, align 8, !tbaa !34
  %62 = getelementptr inbounds nuw %struct.b2Shape, ptr %61, i32 0, i32 19
  %63 = getelementptr inbounds nuw %struct.b2ChainSegment, ptr %62, i32 0, i32 1
  %64 = getelementptr inbounds nuw { <2 x float>, <2 x float> }, ptr %5, i32 0, i32 0
  %65 = load <2 x float>, ptr %64, align 4
  %66 = getelementptr inbounds nuw { <2 x float>, <2 x float> }, ptr %5, i32 0, i32 1
  %67 = load <2 x float>, ptr %66, align 4
  %68 = call { <2 x float>, <2 x float> } @b2ComputeSegmentAABB(ptr noundef %63, <2 x float> %65, <2 x float> %67)
  %69 = getelementptr inbounds nuw { <2 x float>, <2 x float> }, ptr %4, i32 0, i32 0
  %70 = extractvalue { <2 x float>, <2 x float> } %68, 0
  store <2 x float> %70, ptr %69, align 4
  %71 = getelementptr inbounds nuw { <2 x float>, <2 x float> }, ptr %4, i32 0, i32 1
  %72 = extractvalue { <2 x float>, <2 x float> } %68, 1
  store <2 x float> %72, ptr %71, align 4
  br label %78

73:                                               ; preds = %3
  %74 = getelementptr inbounds nuw %struct.b2AABB, ptr %4, i32 0, i32 0
  %75 = getelementptr inbounds nuw %struct.b2Transform, ptr %5, i32 0, i32 0
  call void @llvm.memcpy.p0.p0.i64(ptr align 4 %74, ptr align 4 %75, i64 8, i1 false), !tbaa.struct !173
  %76 = getelementptr inbounds nuw %struct.b2AABB, ptr %4, i32 0, i32 1
  %77 = getelementptr inbounds nuw %struct.b2Transform, ptr %5, i32 0, i32 0
  call void @llvm.memcpy.p0.p0.i64(ptr align 4 %76, ptr align 4 %77, i64 8, i1 false), !tbaa.struct !173
  br label %78

78:                                               ; preds = %73, %60, %48, %36, %24, %12
  %79 = load { <2 x float>, <2 x float> }, ptr %4, align 4
  ret { <2 x float>, <2 x float> } %79
}

; Function Attrs: nounwind uwtable
define internal void @b2UpdateShapeAABBs(ptr noundef %0, <2 x float> %1, <2 x float> %2, i32 noundef %3) #3 {
  %5 = alloca %struct.b2Transform, align 4
  %6 = alloca ptr, align 8
  %7 = alloca i32, align 4
  %8 = alloca float, align 4
  %9 = alloca float, align 4
  %10 = alloca %struct.b2AABB, align 4
  %11 = alloca float, align 4
  %12 = alloca %struct.b2AABB, align 4
  %13 = getelementptr inbounds nuw { <2 x float>, <2 x float> }, ptr %5, i32 0, i32 0
  store <2 x float> %1, ptr %13, align 4
  %14 = getelementptr inbounds nuw { <2 x float>, <2 x float> }, ptr %5, i32 0, i32 1
  store <2 x float> %2, ptr %14, align 4
  store ptr %0, ptr %6, align 8, !tbaa !34
  store i32 %3, ptr %7, align 4, !tbaa !3
  call void @llvm.lifetime.start.p0(i64 4, ptr %8) #9
  %15 = load float, ptr @b2_lengthUnitsPerMeter, align 4, !tbaa !50
  %16 = fmul float 0x3F747AE140000000, %15
  %17 = fmul float 4.000000e+00, %16
  store float %17, ptr %8, align 4, !tbaa !50
  call void @llvm.lifetime.start.p0(i64 4, ptr %9) #9
  %18 = load float, ptr @b2_lengthUnitsPerMeter, align 4, !tbaa !50
  %19 = fmul float 0x3FA99999A0000000, %18
  store float %19, ptr %9, align 4, !tbaa !50
  call void @llvm.lifetime.start.p0(i64 16, ptr %10) #9
  %20 = load ptr, ptr %6, align 8, !tbaa !34
  %21 = getelementptr inbounds nuw { <2 x float>, <2 x float> }, ptr %5, i32 0, i32 0
  %22 = load <2 x float>, ptr %21, align 4
  %23 = getelementptr inbounds nuw { <2 x float>, <2 x float> }, ptr %5, i32 0, i32 1
  %24 = load <2 x float>, ptr %23, align 4
  %25 = call { <2 x float>, <2 x float> } @b2ComputeShapeAABB(ptr noundef %20, <2 x float> %22, <2 x float> %24)
  %26 = getelementptr inbounds nuw { <2 x float>, <2 x float> }, ptr %10, i32 0, i32 0
  %27 = extractvalue { <2 x float>, <2 x float> } %25, 0
  store <2 x float> %27, ptr %26, align 4
  %28 = getelementptr inbounds nuw { <2 x float>, <2 x float> }, ptr %10, i32 0, i32 1
  %29 = extractvalue { <2 x float>, <2 x float> } %25, 1
  store <2 x float> %29, ptr %28, align 4
  %30 = load float, ptr %8, align 4, !tbaa !50
  %31 = getelementptr inbounds nuw %struct.b2AABB, ptr %10, i32 0, i32 0
  %32 = getelementptr inbounds nuw %struct.b2Vec2, ptr %31, i32 0, i32 0
  %33 = load float, ptr %32, align 4, !tbaa !264
  %34 = fsub float %33, %30
  store float %34, ptr %32, align 4, !tbaa !264
  %35 = load float, ptr %8, align 4, !tbaa !50
  %36 = getelementptr inbounds nuw %struct.b2AABB, ptr %10, i32 0, i32 0
  %37 = getelementptr inbounds nuw %struct.b2Vec2, ptr %36, i32 0, i32 1
  %38 = load float, ptr %37, align 4, !tbaa !265
  %39 = fsub float %38, %35
  store float %39, ptr %37, align 4, !tbaa !265
  %40 = load float, ptr %8, align 4, !tbaa !50
  %41 = getelementptr inbounds nuw %struct.b2AABB, ptr %10, i32 0, i32 1
  %42 = getelementptr inbounds nuw %struct.b2Vec2, ptr %41, i32 0, i32 0
  %43 = load float, ptr %42, align 4, !tbaa !266
  %44 = fadd float %43, %40
  store float %44, ptr %42, align 4, !tbaa !266
  %45 = load float, ptr %8, align 4, !tbaa !50
  %46 = getelementptr inbounds nuw %struct.b2AABB, ptr %10, i32 0, i32 1
  %47 = getelementptr inbounds nuw %struct.b2Vec2, ptr %46, i32 0, i32 1
  %48 = load float, ptr %47, align 4, !tbaa !267
  %49 = fadd float %48, %45
  store float %49, ptr %47, align 4, !tbaa !267
  %50 = load ptr, ptr %6, align 8, !tbaa !34
  %51 = getelementptr inbounds nuw %struct.b2Shape, ptr %50, i32 0, i32 12
  call void @llvm.memcpy.p0.p0.i64(ptr align 8 %51, ptr align 4 %10, i64 16, i1 false), !tbaa.struct !199
  call void @llvm.lifetime.start.p0(i64 4, ptr %11) #9
  %52 = load i32, ptr %7, align 4, !tbaa !3
  %53 = icmp eq i32 %52, 0
  br i1 %53, label %54, label %56

54:                                               ; preds = %4
  %55 = load float, ptr %8, align 4, !tbaa !50
  br label %58

56:                                               ; preds = %4
  %57 = load float, ptr %9, align 4, !tbaa !50
  br label %58

58:                                               ; preds = %56, %54
  %59 = phi float [ %55, %54 ], [ %57, %56 ]
  store float %59, ptr %11, align 4, !tbaa !50
  call void @llvm.lifetime.start.p0(i64 16, ptr %12) #9
  %60 = getelementptr inbounds nuw %struct.b2AABB, ptr %10, i32 0, i32 0
  %61 = getelementptr inbounds nuw %struct.b2Vec2, ptr %60, i32 0, i32 0
  %62 = load float, ptr %61, align 4, !tbaa !264
  %63 = load float, ptr %11, align 4, !tbaa !50
  %64 = fsub float %62, %63
  %65 = getelementptr inbounds nuw %struct.b2AABB, ptr %12, i32 0, i32 0
  %66 = getelementptr inbounds nuw %struct.b2Vec2, ptr %65, i32 0, i32 0
  store float %64, ptr %66, align 4, !tbaa !264
  %67 = getelementptr inbounds nuw %struct.b2AABB, ptr %10, i32 0, i32 0
  %68 = getelementptr inbounds nuw %struct.b2Vec2, ptr %67, i32 0, i32 1
  %69 = load float, ptr %68, align 4, !tbaa !265
  %70 = load float, ptr %11, align 4, !tbaa !50
  %71 = fsub float %69, %70
  %72 = getelementptr inbounds nuw %struct.b2AABB, ptr %12, i32 0, i32 0
  %73 = getelementptr inbounds nuw %struct.b2Vec2, ptr %72, i32 0, i32 1
  store float %71, ptr %73, align 4, !tbaa !265
  %74 = getelementptr inbounds nuw %struct.b2AABB, ptr %10, i32 0, i32 1
  %75 = getelementptr inbounds nuw %struct.b2Vec2, ptr %74, i32 0, i32 0
  %76 = load float, ptr %75, align 4, !tbaa !266
  %77 = load float, ptr %11, align 4, !tbaa !50
  %78 = fadd float %76, %77
  %79 = getelementptr inbounds nuw %struct.b2AABB, ptr %12, i32 0, i32 1
  %80 = getelementptr inbounds nuw %struct.b2Vec2, ptr %79, i32 0, i32 0
  store float %78, ptr %80, align 4, !tbaa !266
  %81 = getelementptr inbounds nuw %struct.b2AABB, ptr %10, i32 0, i32 1
  %82 = getelementptr inbounds nuw %struct.b2Vec2, ptr %81, i32 0, i32 1
  %83 = load float, ptr %82, align 4, !tbaa !267
  %84 = load float, ptr %11, align 4, !tbaa !50
  %85 = fadd float %83, %84
  %86 = getelementptr inbounds nuw %struct.b2AABB, ptr %12, i32 0, i32 1
  %87 = getelementptr inbounds nuw %struct.b2Vec2, ptr %86, i32 0, i32 1
  store float %85, ptr %87, align 4, !tbaa !267
  %88 = load ptr, ptr %6, align 8, !tbaa !34
  %89 = getelementptr inbounds nuw %struct.b2Shape, ptr %88, i32 0, i32 13
  call void @llvm.memcpy.p0.p0.i64(ptr align 8 %89, ptr align 4 %12, i64 16, i1 false), !tbaa.struct !199
  call void @llvm.lifetime.end.p0(i64 16, ptr %12) #9
  call void @llvm.lifetime.end.p0(i64 4, ptr %11) #9
  call void @llvm.lifetime.end.p0(i64 16, ptr %10) #9
  call void @llvm.lifetime.end.p0(i64 4, ptr %9) #9
  call void @llvm.lifetime.end.p0(i64 4, ptr %8) #9
  ret void
}

; Function Attrs: nounwind uwtable
define hidden void @b2CreateShapeProxy(ptr noundef %0, ptr noundef %1, i32 noundef %2, <2 x float> %3, <2 x float> %4, i1 noundef zeroext %5) #3 {
  %7 = alloca %struct.b2Transform, align 4
  %8 = alloca ptr, align 8
  %9 = alloca ptr, align 8
  %10 = alloca i32, align 4
  %11 = alloca i8, align 1
  %12 = getelementptr inbounds nuw { <2 x float>, <2 x float> }, ptr %7, i32 0, i32 0
  store <2 x float> %3, ptr %12, align 4
  %13 = getelementptr inbounds nuw { <2 x float>, <2 x float> }, ptr %7, i32 0, i32 1
  store <2 x float> %4, ptr %13, align 4
  store ptr %0, ptr %8, align 8, !tbaa !34
  store ptr %1, ptr %9, align 8, !tbaa !261
  store i32 %2, ptr %10, align 4, !tbaa !3
  %14 = zext i1 %5 to i8
  store i8 %14, ptr %11, align 1, !tbaa !63
  %15 = load ptr, ptr %8, align 8, !tbaa !34
  %16 = load i32, ptr %10, align 4, !tbaa !3
  %17 = getelementptr inbounds nuw { <2 x float>, <2 x float> }, ptr %7, i32 0, i32 0
  %18 = load <2 x float>, ptr %17, align 4
  %19 = getelementptr inbounds nuw { <2 x float>, <2 x float> }, ptr %7, i32 0, i32 1
  %20 = load <2 x float>, ptr %19, align 4
  call void @b2UpdateShapeAABBs(ptr noundef %15, <2 x float> %18, <2 x float> %20, i32 noundef %16)
  %21 = load ptr, ptr %9, align 8, !tbaa !261
  %22 = load i32, ptr %10, align 4, !tbaa !3
  %23 = load ptr, ptr %8, align 8, !tbaa !34
  %24 = getelementptr inbounds nuw %struct.b2Shape, ptr %23, i32 0, i32 13
  %25 = load ptr, ptr %8, align 8, !tbaa !34
  %26 = getelementptr inbounds nuw %struct.b2Shape, ptr %25, i32 0, i32 16
  %27 = getelementptr inbounds nuw %struct.b2Filter, ptr %26, i32 0, i32 0
  %28 = load i64, ptr %27, align 8, !tbaa !263
  %29 = load ptr, ptr %8, align 8, !tbaa !34
  %30 = getelementptr inbounds nuw %struct.b2Shape, ptr %29, i32 0, i32 0
  %31 = load i32, ptr %30, align 8, !tbaa !43
  %32 = load i8, ptr %11, align 1, !tbaa !63, !range !41, !noundef !42
  %33 = trunc i8 %32 to i1
  %34 = getelementptr inbounds nuw { <2 x float>, <2 x float> }, ptr %24, i32 0, i32 0
  %35 = load <2 x float>, ptr %34, align 8
  %36 = getelementptr inbounds nuw { <2 x float>, <2 x float> }, ptr %24, i32 0, i32 1
  %37 = load <2 x float>, ptr %36, align 8
  %38 = call i32 @b2BroadPhase_CreateProxy(ptr noundef %21, i32 noundef %22, <2 x float> %35, <2 x float> %37, i64 noundef %28, i32 noundef %31, i1 noundef zeroext %33)
  %39 = load ptr, ptr %8, align 8, !tbaa !34
  %40 = getelementptr inbounds nuw %struct.b2Shape, ptr %39, i32 0, i32 15
  store i32 %38, ptr %40, align 8, !tbaa !216
  ret void
}