; Function Attrs: nounwind uwtable
define hidden void @b2CreateShapeProxy(ptr noundef %0, ptr noundef %1, i32 noundef %2, <2 x float> %3, <2 x float> %4, i1 noundef zeroext %5) local_unnamed_addr #3 {
  %7 = load float, ptr @b2_lengthUnitsPerMeter, align 4, !tbaa !29
  %8 = getelementptr inbounds nuw i8, ptr %0, i64 20
  %9 = load i32, ptr %8, align 4, !tbaa !171
  switch i32 %9, label %25 [
    i32 1, label %10
    i32 0, label %13
    i32 3, label %16
    i32 2, label %19
    i32 4, label %22
  ]

10:                                               ; preds = %6
  %11 = getelementptr inbounds nuw i8, ptr %0, i64 132
  %12 = tail call { <2 x float>, <2 x float> } @b2ComputeCapsuleAABB(ptr noundef nonnull %11, <2 x float> %3, <2 x float> %4) #10
  br label %b2UpdateShapeAABBs.exit

13:                                               ; preds = %6
  %14 = getelementptr inbounds nuw i8, ptr %0, i64 132
  %15 = tail call { <2 x float>, <2 x float> } @b2ComputeCircleAABB(ptr noundef nonnull %14, <2 x float> %3, <2 x float> %4) #10
  br label %b2UpdateShapeAABBs.exit

16:                                               ; preds = %6
  %17 = getelementptr inbounds nuw i8, ptr %0, i64 132
  %18 = tail call { <2 x float>, <2 x float> } @b2ComputePolygonAABB(ptr noundef nonnull %17, <2 x float> %3, <2 x float> %4) #10
  br label %b2UpdateShapeAABBs.exit

19:                                               ; preds = %6
  %20 = getelementptr inbounds nuw i8, ptr %0, i64 132
  %21 = tail call { <2 x float>, <2 x float> } @b2ComputeSegmentAABB(ptr noundef nonnull %20, <2 x float> %3, <2 x float> %4) #10
  br label %b2UpdateShapeAABBs.exit

22:                                               ; preds = %6
  %23 = getelementptr inbounds nuw i8, ptr %0, i64 140
  %24 = tail call { <2 x float>, <2 x float> } @b2ComputeSegmentAABB(ptr noundef nonnull %23, <2 x float> %3, <2 x float> %4) #10
  br label %b2UpdateShapeAABBs.exit

25:                                               ; preds = %6
  %26 = insertvalue { <2 x float>, <2 x float> } poison, <2 x float> %3, 0
  %27 = insertvalue { <2 x float>, <2 x float> } %26, <2 x float> %3, 1
  br label %b2UpdateShapeAABBs.exit

b2UpdateShapeAABBs.exit:                          ; preds = %10, %13, %16, %19, %22, %25
  %.fca.1.insert.merged.i.i = phi { <2 x float>, <2 x float> } [ %27, %25 ], [ %24, %22 ], [ %21, %19 ], [ %18, %16 ], [ %15, %13 ], [ %12, %10 ]
  %28 = fmul float %7, 0x3FA99999A0000000
  %29 = fmul float %7, 0x3F747AE140000000
  %30 = fmul float %29, 4.000000e+00
  %31 = extractvalue { <2 x float>, <2 x float> } %.fca.1.insert.merged.i.i, 0
  %32 = extractvalue { <2 x float>, <2 x float> } %.fca.1.insert.merged.i.i, 1
  %.sroa.04.0.vec.extract.i = extractelement <2 x float> %31, i64 0
  %33 = fsub float %.sroa.04.0.vec.extract.i, %30
  %.sroa.04.0.vec.insert.i = insertelement <2 x float> poison, float %33, i64 0
  %.sroa.04.4.vec.extract.i = extractelement <2 x float> %31, i64 1
  %34 = fsub float %.sroa.04.4.vec.extract.i, %30
  %.sroa.04.4.vec.insert.i = insertelement <2 x float> %.sroa.04.0.vec.insert.i, float %34, i64 1
  %.sroa.10.8.vec.extract.i = extractelement <2 x float> %32, i64 0
  %35 = fadd float %30, %.sroa.10.8.vec.extract.i
  %.sroa.10.8.vec.insert.i = insertelement <2 x float> poison, float %35, i64 0
  %.sroa.10.12.vec.extract.i = extractelement <2 x float> %32, i64 1
  %36 = fadd float %30, %.sroa.10.12.vec.extract.i
  %.sroa.10.12.vec.insert.i = insertelement <2 x float> %.sroa.10.8.vec.insert.i, float %36, i64 1
  %37 = getelementptr inbounds nuw i8, ptr %0, i64 48
  store <2 x float> %.sroa.04.4.vec.insert.i, ptr %37, align 8
  %.sroa.10.0..sroa_idx.i = getelementptr inbounds nuw i8, ptr %0, i64 56
  store <2 x float> %.sroa.10.12.vec.insert.i, ptr %.sroa.10.0..sroa_idx.i, align 8
  %38 = icmp eq i32 %2, 0
  %39 = select i1 %38, float %30, float %28
  %40 = fsub float %33, %39
  %41 = fsub float %34, %39
  %42 = fadd float %39, %35
  %43 = fadd float %39, %36
  %44 = getelementptr inbounds nuw i8, ptr %0, i64 64
  store float %40, ptr %44, align 8, !tbaa !29
  %.sroa.4.0..sroa_idx.i = getelementptr inbounds nuw i8, ptr %0, i64 68
  store float %41, ptr %.sroa.4.0..sroa_idx.i, align 4, !tbaa !29
  %.sroa.5.0..sroa_idx.i = getelementptr inbounds nuw i8, ptr %0, i64 72
  store float %42, ptr %.sroa.5.0..sroa_idx.i, align 8, !tbaa !29
  %.sroa.6.0..sroa_idx.i = getelementptr inbounds nuw i8, ptr %0, i64 76
  store float %43, ptr %.sroa.6.0..sroa_idx.i, align 4, !tbaa !29
  %45 = getelementptr inbounds nuw i8, ptr %0, i64 96
  %46 = load i64, ptr %45, align 8, !tbaa !207
  %47 = load i32, ptr %0, align 8, !tbaa !23
  %48 = load <2 x float>, ptr %44, align 8
  %49 = load <2 x float>, ptr %.sroa.5.0..sroa_idx.i, align 8
  %50 = tail call i32 @b2BroadPhase_CreateProxy(ptr noundef %1, i32 noundef %2, <2 x float> %48, <2 x float> %49, i64 noundef %46, i32 noundef %47, i1 noundef zeroext %5) #10
  %51 = getelementptr inbounds nuw i8, ptr %0, i64 88
  store i32 %50, ptr %51, align 8, !tbaa !43
  ret void
}